target datalayout = "e-m:e-p270:32:32-p271:32:32-p272:64:64-i64:64-i128:128-f80:128-n8:16:32:64-S128"
target triple = "x86_64-pc-linux-gnu"

%struct.H5P_libclass_t = type { ptr, i32, ptr, ptr, ptr, ptr, ptr, ptr, ptr, ptr, ptr, ptr, ptr }
%struct.H5VL_loc_params_t = type { i32, i32, %union.anon.4 }
%union.anon.4 = type { %struct.H5VL_loc_by_idx }
%struct.H5VL_loc_by_idx = type { ptr, i32, i32, i64, i64 }
%struct.H5O_token_t = type { [16 x i8] }
%struct.H5VL_object_t = type { ptr, ptr, i64 }

@.str = private unnamed_addr constant [97 x i8] c"generated/home/dtcxzyw/WorkSpace/Projects/compilers/llvm-opt-benchmark/bench/hdf5/hdf5/src/H5R.c\00", align 1
@H5E_CANTSET_g = external global i64, align 8
@H5E_ARGS_g = external global i64, align 8
@H5E_BADVALUE_g = external global i64, align 8
@.str.3 = private unnamed_addr constant [26 x i8] c"invalid reference pointer\00", align 1
@H5E_BADTYPE_g = external global i64, align 8
@.str.5 = private unnamed_addr constant [20 x i8] c"not a property list\00", align 1
@H5P_LST_DATASET_XFER_ID_g = external global i64, align 8
@H5E_REFERENCE_g = external global i64, align 8
@H5E_CANTGET_g = external global i64, align 8
@.str.20 = private unnamed_addr constant [23 x i8] c"invalid reference type\00", align 1
@H5E_CANTOPENOBJ_g = external global i64, align 8
@H5E_CANTOPENFILE_g = external global i64, align 8
@.str.42 = private unnamed_addr constant [31 x i8] c"cannot re-open referenced file\00", align 1
@.str.43 = private unnamed_addr constant [27 x i8] c"unable to get object token\00", align 1
@__func__.H5R__open_object_api_common = private unnamed_addr constant [28 x i8] c"H5R__open_object_api_common\00", align 1
@H5P_CLS_DACC = external constant [1 x %struct.H5P_libclass_t], align 16
@.str.49 = private unnamed_addr constant [36 x i8] c"can't set access property list info\00", align 1
@.str.50 = private unnamed_addr constant [34 x i8] c"can't set object access arguments\00", align 1
@.str.51 = private unnamed_addr constant [31 x i8] c"unable to open object by token\00", align 1
@H5E_CANTREGISTER_g = external global i64, align 8
@.str.52 = private unnamed_addr constant [33 x i8] c"unable to register object handle\00", align 1

; Function Attrs: nounwind uwtable
define internal i64 @H5R__open_object_api_common(ptr noundef %0, i64 noundef %1, i64 noundef %2, ptr noundef %3, ptr noundef %4) #0 {
  %6 = alloca ptr, align 8
  %7 = alloca i64, align 8
  %8 = alloca i64, align 8
  %9 = alloca ptr, align 8
  %10 = alloca ptr, align 8
  %11 = alloca i64, align 8
  %12 = alloca ptr, align 8
  %13 = alloca ptr, align 8
  %14 = alloca %struct.H5VL_loc_params_t, align 8
  %15 = alloca %struct.H5O_token_t, align 1
  %16 = alloca i32, align 4
  %17 = alloca ptr, align 8
  %18 = alloca i64, align 8
  %19 = alloca i8, align 1
  store ptr %0, ptr %6, align 8
  store i64 %1, ptr %7, align 8
  store i64 %2, ptr %8, align 8
  store ptr %3, ptr %9, align 8
  store ptr %4, ptr %10, align 8
  store ptr null, ptr %12, align 8
  %20 = load ptr, ptr %10, align 8
  %21 = icmp ne ptr %20, null
  br i1 %21, label %22, label %24

22:                                               ; preds = %5
  %23 = load ptr, ptr %10, align 8
  br label %25

24:                                               ; preds = %5
  br label %25

25:                                               ; preds = %24, %22
  %26 = phi ptr [ %23, %22 ], [ %12, %24 ]
  store ptr %26, ptr %13, align 8
  call void @llvm.memset.p0.i64(ptr align 1 %15, i8 0, i64 16, i1 false)
  store ptr null, ptr %17, align 8
  store i64 -1, ptr %18, align 8
  store i8 0, ptr %19, align 1
  %27 = load ptr, ptr %6, align 8
  %28 = icmp eq ptr %27, null
  br i1 %28, label %29, label %44

29:                                               ; preds = %25
  br label %30

30:                                               ; preds = %29
  br label %31

31:                                               ; preds = %30
  br label %32

32:                                               ; preds = %31
  %33 = load i64, ptr @H5E_ARGS_g, align 8
  %34 = load i64, ptr @H5E_BADVALUE_g, align 8
  %35 = call i32 (ptr, ptr, i32, i64, i64, ptr, ...) @H5E_printf_stack(ptr noundef @.str, ptr noundef @__func__.H5R__open_object_api_common, i32 noundef 504, i64 noundef %33, i64 noundef %34, ptr noundef @.str.3)
  br label %36

36:                                               ; preds = %32
  store i8 1, ptr %19, align 1
  %37 = load i8, ptr %19, align 1
  %38 = trunc i8 %37 to i1
  %39 = zext i1 %38 to i8
  store i8 %39, ptr %19, align 1
  br label %40

40:                                               ; preds = %36
  br label %41

41:                                               ; preds = %40
  store i64 -1, ptr %18, align 8
  br label %233

42:                                               ; No predecessors!
  br label %43

43:                                               ; preds = %42
  br label %44

44:                                               ; preds = %43, %25
  %45 = load ptr, ptr %6, align 8
  %46 = call i32 @H5R__get_type(ptr noundef %45)
  %47 = icmp sle i32 %46, -1
  br i1 %47, label %52, label %48

48:                                               ; preds = %44
  %49 = load ptr, ptr %6, align 8
  %50 = call i32 @H5R__get_type(ptr noundef %49)
  %51 = icmp sge i32 %50, 5
  br i1 %51, label %52, label %67

52:                                               ; preds = %48, %44
  br label %53

53:                                               ; preds = %52
  br label %54

54:                                               ; preds = %53
  br label %55

55:                                               ; preds = %54
  %56 = load i64, ptr @H5E_ARGS_g, align 8
  %57 = load i64, ptr @H5E_BADVALUE_g, align 8
  %58 = call i32 (ptr, ptr, i32, i64, i64, ptr, ...) @H5E_printf_stack(ptr noundef @.str, ptr noundef @__func__.H5R__open_object_api_common, i32 noundef 507, i64 noundef %56, i64 noundef %57, ptr noundef @.str.20)
  br label %59

59:                                               ; preds = %55
  store i8 1, ptr %19, align 1
  %60 = load i8, ptr %19, align 1
  %61 = trunc i8 %60 to i1
  %62 = zext i1 %61 to i8
  store i8 %62, ptr %19, align 1
  br label %63

63:                                               ; preds = %59
  br label %64

64:                                               ; preds = %63
  store i64 -1, ptr %18, align 8
  br label %233

65:                                               ; No predecessors!
  br label %66

66:                                               ; preds = %65
  br label %67

67:                                               ; preds = %66, %48
  %68 = load i64, ptr %7, align 8
  %69 = icmp slt i64 %68, 0
  br i1 %69, label %70, label %85

70:                                               ; preds = %67
  br label %71

71:                                               ; preds = %70
  br label %72

72:                                               ; preds = %71
  br label %73

73:                                               ; preds = %72
  %74 = load i64, ptr @H5E_ARGS_g, align 8
  %75 = load i64, ptr @H5E_BADTYPE_g, align 8
  %76 = call i32 (ptr, ptr, i32, i64, i64, ptr, ...) @H5E_printf_stack(ptr noundef @.str, ptr noundef @__func__.H5R__open_object_api_common, i32 noundef 509, i64 noundef %74, i64 noundef %75, ptr noundef @.str.5)
  br label %77

77:                                               ; preds = %73
  store i8 1, ptr %19, align 1
  %78 = load i8, ptr %19, align 1
  %79 = trunc i8 %78 to i1
  %80 = zext i1 %79 to i8
  store i8 %80, ptr %19, align 1
  br label %81

81:                                               ; preds = %77
  br label %82

82:                                               ; preds = %81
  store i64 -1, ptr %18, align 8
  br label %233

83:                                               ; No predecessors!
  br label %84

84:                                               ; preds = %83
  br label %85

85:                                               ; preds = %84, %67
  %86 = load i64, ptr %8, align 8
  %87 = icmp slt i64 %86, 0
  br i1 %87, label %88, label %103

88:                                               ; preds = %85
  br label %89

89:                                               ; preds = %88
  br label %90

90:                                               ; preds = %89
  br label %91

91:                                               ; preds = %90
  %92 = load i64, ptr @H5E_ARGS_g, align 8
  %93 = load i64, ptr @H5E_BADTYPE_g, align 8
  %94 = call i32 (ptr, ptr, i32, i64, i64, ptr, ...) @H5E_printf_stack(ptr noundef @.str, ptr noundef @__func__.H5R__open_object_api_common, i32 noundef 511, i64 noundef %92, i64 noundef %93, ptr noundef @.str.5)
  br label %95

95:                                               ; preds = %91
  store i8 1, ptr %19, align 1
  %96 = load i8, ptr %19, align 1
  %97 = trunc i8 %96 to i1
  %98 = zext i1 %97 to i8
  store i8 %98, ptr %19, align 1
  br label %99

99:                                               ; preds = %95
  br label %100

100:                                              ; preds = %99
  store i64 -1, ptr %18, align 8
  br label %233

101:                                              ; No predecessors!
  br label %102

102:                                              ; preds = %101
  br label %103

103:                                              ; preds = %102, %85
  %104 = load ptr, ptr %6, align 8
  %105 = call i64 @H5R__get_loc_id(ptr noundef %104)
  store i64 %105, ptr %11, align 8
  %106 = icmp eq i64 -1, %105
  br i1 %106, label %107, label %128

107:                                              ; preds = %103
  %108 = load ptr, ptr %6, align 8
  %109 = load i64, ptr %7, align 8
  %110 = call i64 @H5R__reopen_file(ptr noundef %108, i64 noundef %109)
  store i64 %110, ptr %11, align 8
  %111 = icmp slt i64 %110, 0
  br i1 %111, label %112, label %127

112:                                              ; preds = %107
  br label %113

113:                                              ; preds = %112
  br label %114

114:                                              ; preds = %113
  br label %115

115:                                              ; preds = %114
  %116 = load i64, ptr @H5E_REFERENCE_g, align 8
  %117 = load i64, ptr @H5E_CANTOPENFILE_g, align 8
  %118 = call i32 (ptr, ptr, i32, i64, i64, ptr, ...) @H5E_printf_stack(ptr noundef @.str, ptr noundef @__func__.H5R__open_object_api_common, i32 noundef 517, i64 noundef %116, i64 noundef %117, ptr noundef @.str.42)
  br label %119

119:                                              ; preds = %115
  store i8 1, ptr %19, align 1
  %120 = load i8, ptr %19, align 1
  %121 = trunc i8 %120 to i1
  %122 = zext i1 %121 to i8
  store i8 %122, ptr %19, align 1
  br label %123

123:                                              ; preds = %119
  br label %124

124:                                              ; preds = %123
  store i64 -1, ptr %18, align 8
  br label %233

125:                                              ; No predecessors!
  br label %126

126:                                              ; preds = %125
  br label %127

127:                                              ; preds = %126, %107
  br label %128

128:                                              ; preds = %127, %103
  %129 = load i64, ptr %11, align 8
  %130 = call i32 @H5CX_set_apl(ptr noundef %8, ptr noundef @H5P_CLS_DACC, i64 noundef %129, i1 noundef zeroext false)
  %131 = icmp slt i32 %130, 0
  br i1 %131, label %132, label %147

132:                                              ; preds = %128
  br label %133

133:                                              ; preds = %132
  br label %134

134:                                              ; preds = %133
  br label %135

135:                                              ; preds = %134
  %136 = load i64, ptr @H5E_REFERENCE_g, align 8
  %137 = load i64, ptr @H5E_CANTSET_g, align 8
  %138 = call i32 (ptr, ptr, i32, i64, i64, ptr, ...) @H5E_printf_stack(ptr noundef @.str, ptr noundef @__func__.H5R__open_object_api_common, i32 noundef 522, i64 noundef %136, i64 noundef %137, ptr noundef @.str.49)
  br label %139

139:                                              ; preds = %135
  store i8 1, ptr %19, align 1
  %140 = load i8, ptr %19, align 1
  %141 = trunc i8 %140 to i1
  %142 = zext i1 %141 to i8
  store i8 %142, ptr %19, align 1
  br label %143

143:                                              ; preds = %139
  br label %144

144:                                              ; preds = %143
  store i64 -1, ptr %18, align 8
  br label %233

145:                                              ; No predecessors!
  br label %146

146:                                              ; preds = %145
  br label %147

147:                                              ; preds = %146, %128
  %148 = load ptr, ptr %6, align 8
  %149 = call i32 @H5R__get_obj_token(ptr noundef %148, ptr noundef %15, ptr noundef null)
  %150 = icmp slt i32 %149, 0
  br i1 %150, label %151, label %166

151:                                              ; preds = %147
  br label %152

152:                                              ; preds = %151
  br label %153

153:                                              ; preds = %152
  br label %154

154:                                              ; preds = %153
  %155 = load i64, ptr @H5E_REFERENCE_g, align 8
  %156 = load i64, ptr @H5E_CANTGET_g, align 8
  %157 = call i32 (ptr, ptr, i32, i64, i64, ptr, ...) @H5E_printf_stack(ptr noundef @.str, ptr noundef @__func__.H5R__open_object_api_common, i32 noundef 526, i64 noundef %155, i64 noundef %156, ptr noundef @.str.43)
  br label %158

158:                                              ; preds = %154
  store i8 1, ptr %19, align 1
  %159 = load i8, ptr %19, align 1
  %160 = trunc i8 %159 to i1
  %161 = zext i1 %160 to i8
  store i8 %161, ptr %19, align 1
  br label %162

162:                                              ; preds = %158
  br label %163

163:                                              ; preds = %162
  store i64 -1, ptr %18, align 8
  br label %233

164:                                              ; No predecessors!
  br label %165

165:                                              ; preds = %164
  br label %166

166:                                              ; preds = %165, %147
  %167 = load i64, ptr %11, align 8
  %168 = load ptr, ptr %13, align 8
  %169 = call i32 @H5VL_setup_token_args(i64 noundef %167, ptr noundef %15, ptr noundef %168, ptr noundef %14)
  %170 = icmp slt i32 %169, 0
  br i1 %170, label %171, label %186

171:                                              ; preds = %166
  br label %172

172:                                              ; preds = %171
  br label %173

173:                                              ; preds = %172
  br label %174

174:                                              ; preds = %173
  %175 = load i64, ptr @H5E_REFERENCE_g, align 8
  %176 = load i64, ptr @H5E_CANTSET_g, align 8
  %177 = call i32 (ptr, ptr, i32, i64, i64, ptr, ...) @H5E_printf_stack(ptr noundef @.str, ptr noundef @__func__.H5R__open_object_api_common, i32 noundef 530, i64 noundef %175, i64 noundef %176, ptr noundef @.str.50)
  br label %178

178:                                              ; preds = %174
  store i8 1, ptr %19, align 1
  %179 = load i8, ptr %19, align 1
  %180 = trunc i8 %179 to i1
  %181 = zext i1 %180 to i8
  store i8 %181, ptr %19, align 1
  br label %182

182:                                              ; preds = %178
  br label %183

183:                                              ; preds = %182
  store i64 -1, ptr %18, align 8
  br label %233

184:                                              ; No predecessors!
  br label %185

185:                                              ; preds = %184
  br label %186

186:                                              ; preds = %185, %166
  %187 = load ptr, ptr %13, align 8
  %188 = load ptr, ptr %187, align 8
  %189 = load i64, ptr @H5P_LST_DATASET_XFER_ID_g, align 8
  %190 = load ptr, ptr %9, align 8
  %191 = call ptr @H5VL_object_open(ptr noundef %188, ptr noundef %14, ptr noundef %16, i64 noundef %189, ptr noundef %190)
  store ptr %191, ptr %17, align 8
  %192 = icmp eq ptr null, %191
  br i1 %192, label %193, label %208

193:                                              ; preds = %186
  br label %194

194:                                              ; preds = %193
  br label %195

195:                                              ; preds = %194
  br label %196

196:                                              ; preds = %195
  %197 = load i64, ptr @H5E_REFERENCE_g, align 8
  %198 = load i64, ptr @H5E_CANTOPENOBJ_g, align 8
  %199 = call i32 (ptr, ptr, i32, i64, i64, ptr, ...) @H5E_printf_stack(ptr noundef @.str, ptr noundef @__func__.H5R__open_object_api_common, i32 noundef 535, i64 noundef %197, i64 noundef %198, ptr noundef @.str.51)
  br label %200

200:                                              ; preds = %196
  store i8 1, ptr %19, align 1
  %201 = load i8, ptr %19, align 1
  %202 = trunc i8 %201 to i1
  %203 = zext i1 %202 to i8
  store i8 %203, ptr %19, align 1
  br label %204

204:                                              ; preds = %200
  br label %205

205:                                              ; preds = %204
  store i64 -1, ptr %18, align 8
  br label %233

206:                                              ; No predecessors!
  br label %207

207:                                              ; preds = %206
  br label %208

208:                                              ; preds = %207, %186
  %209 = load i32, ptr %16, align 4
  %210 = load ptr, ptr %17, align 8
  %211 = load ptr, ptr %13, align 8
  %212 = load ptr, ptr %211, align 8
  %213 = getelementptr inbounds %struct.H5VL_object_t, ptr %212, i32 0, i32 1
  %214 = load ptr, ptr %213, align 8
  %215 = call i64 @H5VL_register(i32 noundef %209, ptr noundef %210, ptr noundef %214, i1 noundef zeroext true)
  store i64 %215, ptr %18, align 8
  %216 = icmp slt i64 %215, 0
  br i1 %216, label %217, label %232

217:                                              ; preds = %208
  br label %218

218:                                              ; preds = %217
  br label %219

219:                                              ; preds = %218
  br label %220

220:                                              ; preds = %219
  %221 = load i64, ptr @H5E_REFERENCE_g, align 8
  %222 = load i64, ptr @H5E_CANTREGISTER_g, align 8
  %223 = call i32 (ptr, ptr, i32, i64, i64, ptr, ...) @H5E_printf_stack(ptr noundef @.str, ptr noundef @__func__.H5R__open_object_api_common, i32 noundef 539, i64 noundef %221, i64 noundef %222, ptr noundef @.str.52)
  br label %224

224:                                              ; preds = %220
  store i8 1, ptr %19, align 1
  %225 = load i8, ptr %19, align 1
  %226 = trunc i8 %225 to i1
  %227 = zext i1 %226 to i8
  store i8 %227, ptr %19, align 1
  br label %228

228:                                              ; preds = %224
  br label %229

229:                                              ; preds = %228
  store i64 -1, ptr %18, align 8
  br label %233

230:                                              ; No predecessors!
  br label %231

231:                                              ; preds = %230
  br label %232

232:                                              ; preds = %231, %208
  br label %233

233:                                              ; preds = %232, %229, %205, %183, %163, %144, %124, %100, %82, %64, %41
  %234 = load i64, ptr %18, align 8
  ret i64 %234
}