; Function Attrs: nounwind uwtable
define internal fastcc range(i64 -1, -9223372036854775808) i64 @H5R__open_object_api_common(ptr noundef %0, i64 noundef %1, i64 noundef %2, ptr noundef %3, ptr noundef %4) unnamed_addr #0 {
  %6 = alloca i64, align 8
  %7 = alloca ptr, align 8
  %8 = alloca %struct.H5VL_loc_params_t, align 8
  %9 = alloca %struct.H5O_token_t, align 1
  %10 = alloca i32, align 4
  store i64 %2, ptr %6, align 8
  store ptr null, ptr %7, align 8
  %.not = icmp eq ptr %4, null
  %11 = select i1 %.not, ptr %7, ptr %4
  call void @llvm.memset.p0.i64(ptr noundef nonnull align 1 dereferenceable(16) %9, i8 0, i64 16, i1 false)
  %12 = icmp eq ptr %0, null
  br i1 %12, label %13, label %17

13:                                               ; preds = %5
  %14 = load i64, ptr @H5E_ARGS_g, align 8
  %15 = load i64, ptr @H5E_BADVALUE_g, align 8
  %16 = tail call i32 (ptr, ptr, i32, i64, i64, ptr, ...) @H5E_printf_stack(ptr noundef nonnull @.str, ptr noundef nonnull @__func__.H5R__open_object_api_common, i32 noundef 504, i64 noundef %14, i64 noundef %15, ptr noundef nonnull @.str.3) #4
  br label %90

17:                                               ; preds = %5
  %18 = tail call i32 @H5R__get_type(ptr noundef nonnull %0) #4
  %19 = icmp slt i32 %18, 0
  br i1 %19, label %23, label %20

20:                                               ; preds = %17
  %21 = tail call i32 @H5R__get_type(ptr noundef nonnull %0) #4
  %22 = icmp sgt i32 %21, 4
  br i1 %22, label %23, label %27

23:                                               ; preds = %17, %20
  %24 = load i64, ptr @H5E_ARGS_g, align 8
  %25 = load i64, ptr @H5E_BADVALUE_g, align 8
  %26 = tail call i32 (ptr, ptr, i32, i64, i64, ptr, ...) @H5E_printf_stack(ptr noundef nonnull @.str, ptr noundef nonnull @__func__.H5R__open_object_api_common, i32 noundef 507, i64 noundef %24, i64 noundef %25, ptr noundef nonnull @.str.20) #4
  br label %90

27:                                               ; preds = %20
  %28 = icmp slt i64 %1, 0
  br i1 %28, label %29, label %33

29:                                               ; preds = %27
  %30 = load i64, ptr @H5E_ARGS_g, align 8
  %31 = load i64, ptr @H5E_BADTYPE_g, align 8
  %32 = tail call i32 (ptr, ptr, i32, i64, i64, ptr, ...) @H5E_printf_stack(ptr noundef nonnull @.str, ptr noundef nonnull @__func__.H5R__open_object_api_common, i32 noundef 509, i64 noundef %30, i64 noundef %31, ptr noundef nonnull @.str.5) #4
  br label %90

33:                                               ; preds = %27
  %34 = icmp slt i64 %2, 0
  br i1 %34, label %35, label %39

35:                                               ; preds = %33
  %36 = load i64, ptr @H5E_ARGS_g, align 8
  %37 = load i64, ptr @H5E_BADTYPE_g, align 8
  %38 = tail call i32 (ptr, ptr, i32, i64, i64, ptr, ...) @H5E_printf_stack(ptr noundef nonnull @.str, ptr noundef nonnull @__func__.H5R__open_object_api_common, i32 noundef 511, i64 noundef %36, i64 noundef %37, ptr noundef nonnull @.str.5) #4
  br label %90

39:                                               ; preds = %33
  %40 = tail call i64 @H5R__get_loc_id(ptr noundef nonnull %0) #4
  %41 = icmp eq i64 %40, -1
  br i1 %41, label %42, label %49

42:                                               ; preds = %39
  %43 = tail call i64 @H5R__reopen_file(ptr noundef nonnull %0, i64 noundef %1) #4
  %44 = icmp slt i64 %43, 0
  br i1 %44, label %45, label %49

45:                                               ; preds = %42
  %46 = load i64, ptr @H5E_REFERENCE_g, align 8
  %47 = load i64, ptr @H5E_CANTOPENFILE_g, align 8
  %48 = tail call i32 (ptr, ptr, i32, i64, i64, ptr, ...) @H5E_printf_stack(ptr noundef nonnull @.str, ptr noundef nonnull @__func__.H5R__open_object_api_common, i32 noundef 517, i64 noundef %46, i64 noundef %47, ptr noundef nonnull @.str.42) #4
  br label %90

49:                                               ; preds = %42, %39
  %.027 = phi i64 [ %43, %42 ], [ %40, %39 ]
  %50 = call i32 @H5CX_set_apl(ptr noundef nonnull %6, ptr noundef nonnull @H5P_CLS_DACC, i64 noundef %.027, i1 noundef zeroext false) #4
  %51 = icmp slt i32 %50, 0
  br i1 %51, label %52, label %56

52:                                               ; preds = %49
  %53 = load i64, ptr @H5E_REFERENCE_g, align 8
  %54 = load i64, ptr @H5E_CANTSET_g, align 8
  %55 = call i32 (ptr, ptr, i32, i64, i64, ptr, ...) @H5E_printf_stack(ptr noundef nonnull @.str, ptr noundef nonnull @__func__.H5R__open_object_api_common, i32 noundef 522, i64 noundef %53, i64 noundef %54, ptr noundef nonnull @.str.49) #4
  br label %90

56:                                               ; preds = %49
  %57 = call i32 @H5R__get_obj_token(ptr noundef nonnull %0, ptr noundef nonnull %9, ptr noundef null) #4
  %58 = icmp slt i32 %57, 0
  br i1 %58, label %59, label %63

59:                                               ; preds = %56
  %60 = load i64, ptr @H5E_REFERENCE_g, align 8
  %61 = load i64, ptr @H5E_CANTGET_g, align 8
  %62 = call i32 (ptr, ptr, i32, i64, i64, ptr, ...) @H5E_printf_stack(ptr noundef nonnull @.str, ptr noundef nonnull @__func__.H5R__open_object_api_common, i32 noundef 526, i64 noundef %60, i64 noundef %61, ptr noundef nonnull @.str.43) #4
  br label %90

63:                                               ; preds = %56
  %64 = call i32 @H5VL_setup_token_args(i64 noundef %.027, ptr noundef nonnull %9, ptr noundef nonnull %11, ptr noundef nonnull %8) #4
  %65 = icmp slt i32 %64, 0
  br i1 %65, label %66, label %70

66:                                               ; preds = %63
  %67 = load i64, ptr @H5E_REFERENCE_g, align 8
  %68 = load i64, ptr @H5E_CANTSET_g, align 8
  %69 = call i32 (ptr, ptr, i32, i64, i64, ptr, ...) @H5E_printf_stack(ptr noundef nonnull @.str, ptr noundef nonnull @__func__.H5R__open_object_api_common, i32 noundef 530, i64 noundef %67, i64 noundef %68, ptr noundef nonnull @.str.50) #4
  br label %90

70:                                               ; preds = %63
  %71 = load ptr, ptr %11, align 8
  %72 = load i64, ptr @H5P_LST_DATASET_XFER_ID_g, align 8
  %73 = call ptr @H5VL_object_open(ptr noundef %71, ptr noundef nonnull %8, ptr noundef nonnull %10, i64 noundef %72, ptr noundef %3) #4
  %74 = icmp eq ptr %73, null
  br i1 %74, label %75, label %79

75:                                               ; preds = %70
  %76 = load i64, ptr @H5E_REFERENCE_g, align 8
  %77 = load i64, ptr @H5E_CANTOPENOBJ_g, align 8
  %78 = call i32 (ptr, ptr, i32, i64, i64, ptr, ...) @H5E_printf_stack(ptr noundef nonnull @.str, ptr noundef nonnull @__func__.H5R__open_object_api_common, i32 noundef 535, i64 noundef %76, i64 noundef %77, ptr noundef nonnull @.str.51) #4
  br label %90

79:                                               ; preds = %70
  %80 = load i32, ptr %10, align 4
  %81 = load ptr, ptr %11, align 8
  %82 = getelementptr inbounds i8, ptr %81, i64 8
  %83 = load ptr, ptr %82, align 8
  %84 = call i64 @H5VL_register(i32 noundef %80, ptr noundef nonnull %73, ptr noundef %83, i1 noundef zeroext true) #4
  %85 = icmp slt i64 %84, 0
  br i1 %85, label %86, label %90

86:                                               ; preds = %79
  %87 = load i64, ptr @H5E_REFERENCE_g, align 8
  %88 = load i64, ptr @H5E_CANTREGISTER_g, align 8
  %89 = call i32 (ptr, ptr, i32, i64, i64, ptr, ...) @H5E_printf_stack(ptr noundef nonnull @.str, ptr noundef nonnull @__func__.H5R__open_object_api_common, i32 noundef 539, i64 noundef %87, i64 noundef %88, ptr noundef nonnull @.str.52) #4
  br label %90

90:                                               ; preds = %79, %86, %75, %66, %59, %52, %45, %35, %29, %23, %13
  %.0 = phi i64 [ -1, %13 ], [ -1, %23 ], [ -1, %29 ], [ -1, %35 ], [ -1, %45 ], [ -1, %52 ], [ -1, %59 ], [ -1, %66 ], [ -1, %75 ], [ -1, %86 ], [ %84, %79 ]
  ret i64 %.0
}